; Function Attrs: nounwind uwtable
define internal fastcc i32 @setup_cert(ptr noundef %0, ptr noundef %1, ptr noundef %2, ptr noundef %3, ptr noundef readonly captures(none) %4) unnamed_addr #0 {
  %6 = icmp eq ptr %1, null
  br i1 %6, label %13, label %7

7:                                                ; preds = %5
  %8 = tail call ptr @get_passwd(ptr noundef %2, ptr noundef %3) #12
  %9 = tail call ptr @load_cert_pass(ptr noundef nonnull %1, i32 noundef 0, i32 noundef 0, ptr noundef %8, ptr noundef %3) #12
  tail call void @clear_free(ptr noundef %8) #12
  %10 = icmp eq ptr %9, null
  br i1 %10, label %13, label %11

11:                                               ; preds = %7
  %12 = tail call i32 %4(ptr noundef %0, ptr noundef nonnull %9) #12
  tail call void @X509_free(ptr noundef nonnull %9) #12
  br label %13

13:                                               ; preds = %7, %5, %11
  %.0 = phi i32 [ %12, %11 ], [ 1, %5 ], [ 0, %7 ]
  ret i32 %.0
}